; Function Attrs: mustprogress nofree norecurse nosync nounwind willreturn memory(write, argmem: readwrite, inaccessiblemem: none) uwtable
define noundef i32 @SUNAdaptController_SetDefaults_ImExGus(ptr noundef readonly captures(none) %0) #3 {
  %2 = load ptr, ptr %0, align 8, !tbaa !19
  %3 = getelementptr inbounds nuw i8, ptr %2, i64 16
  store double 3.670000e-01, ptr %3, align 8, !tbaa !20
  %4 = getelementptr inbounds nuw i8, ptr %2, i64 24
  store double 2.680000e-01, ptr %4, align 8, !tbaa !24
  store double 0x3FEE666666666666, ptr %2, align 8, !tbaa !25
  %5 = getelementptr inbounds nuw i8, ptr %2, i64 8
  store double 0x3FEE666666666666, ptr %5, align 8, !tbaa !26
  %6 = getelementptr inbounds nuw i8, ptr %2, i64 32
  store double 1.500000e+00, ptr %6, align 8, !tbaa !27
  ret i32 0
}